; Function Attrs: mustprogress nofree norecurse nosync nounwind willreturn memory(read, inaccessiblemem: none) uwtable
define noundef zeroext i1 @_ZNK10open_spiel11pathfinding16PathfindingState10IsTerminalEv(ptr nocapture noundef nonnull readonly align 8 dereferenceable(264) %0) unnamed_addr #7 align 2 {
  %2 = getelementptr inbounds nuw i8, ptr %0, i64 84
  %3 = load i32, ptr %2, align 4
  %4 = getelementptr inbounds nuw i8, ptr %0, i64 88
  %5 = load i32, ptr %4, align 8
  %.not = icmp slt i32 %3, %5
  br i1 %.not, label %6, label %_ZNK10open_spiel11pathfinding16PathfindingState24AllPlayersOnDestinationsEv.exit

6:                                                ; preds = %1
  %7 = getelementptr inbounds nuw i8, ptr %0, i64 28
  %8 = load i32, ptr %7, align 4
  %9 = icmp slt i32 %8, 1
  br i1 %9, label %_ZNK10open_spiel11pathfinding16PathfindingState24AllPlayersOnDestinationsEv.exit, label %.lr.ph.i

.lr.ph.i:                                         ; preds = %6
  %10 = getelementptr inbounds nuw i8, ptr %0, i64 72
  %11 = load ptr, ptr %10, align 8
  %12 = getelementptr inbounds nuw i8, ptr %11, i64 64
  %13 = load ptr, ptr %12, align 8
  %14 = getelementptr inbounds nuw i8, ptr %0, i64 120
  %15 = load ptr, ptr %14, align 8
  %wide.trip.count.i = zext nneg i32 %8 to i64
  br label %16

16:                                               ; preds = %16, %.lr.ph.i
  %indvars.iv.i = phi i64 [ 0, %.lr.ph.i ], [ %indvars.iv.next.i, %16 ]
  %17 = getelementptr inbounds %"struct.std::pair.34", ptr %13, i64 %indvars.iv.i
  %18 = load i32, ptr %17, align 4
  %19 = sext i32 %18 to i64
  %20 = getelementptr inbounds %"class.std::vector.29", ptr %15, i64 %19
  %21 = getelementptr inbounds nuw i8, ptr %17, i64 4
  %22 = load i32, ptr %21, align 4
  %23 = sext i32 %22 to i64
  %24 = load ptr, ptr %20, align 8
  %25 = getelementptr inbounds i32, ptr %24, i64 %23
  %26 = load i32, ptr %25, align 4
  %27 = zext i32 %26 to i64
  %.not.i = icmp eq i64 %indvars.iv.i, %27
  %indvars.iv.next.i = add nuw nsw i64 %indvars.iv.i, 1
  %exitcond.not.i = icmp ne i64 %indvars.iv.next.i, %wide.trip.count.i
  %or.cond.not = select i1 %.not.i, i1 %exitcond.not.i, i1 false
  br i1 %or.cond.not, label %16, label %_ZNK10open_spiel11pathfinding16PathfindingState24AllPlayersOnDestinationsEv.exit, !llvm.loop !8

_ZNK10open_spiel11pathfinding16PathfindingState24AllPlayersOnDestinationsEv.exit: ; preds = %16, %6, %1
  %.0 = phi i1 [ true, %1 ], [ true, %6 ], [ %.not.i, %16 ]
  ret i1 %.0
}